target datalayout = "e-m:e-p270:32:32-p271:32:32-p272:64:64-i64:64-i128:128-f80:128-n8:16:32:64-S128"
target triple = "x86_64-pc-linux-gnu"

%struct.aeEventLoop = type { i32, i32, i64, i32, ptr, ptr, ptr, i32, ptr, ptr, ptr, i32, [2 x ptr] }
%struct.aeFileEvent = type { i32, ptr, ptr, ptr }

; Function Attrs: nounwind uwtable
define dso_local ptr @aeGetFileClientData(ptr noundef %0, i32 noundef %1) #0 {
  %3 = alloca ptr, align 8
  %4 = alloca ptr, align 8
  %5 = alloca i32, align 4
  %6 = alloca ptr, align 8
  %7 = alloca i32, align 4
  store ptr %0, ptr %4, align 8, !tbaa !9
  store i32 %1, ptr %5, align 4, !tbaa !5
  %8 = load i32, ptr %5, align 4, !tbaa !5
  %9 = load ptr, ptr %4, align 8, !tbaa !9
  %10 = getelementptr inbounds nuw %struct.aeEventLoop, ptr %9, i32 0, i32 1
  %11 = load i32, ptr %10, align 4, !tbaa !20
  %12 = icmp sge i32 %8, %11
  br i1 %12, label %13, label %14

13:                                               ; preds = %2
  store ptr null, ptr %3, align 8
  br label %31

14:                                               ; preds = %2
  call void @llvm.lifetime.start.p0(i64 8, ptr %6) #10
  %15 = load ptr, ptr %4, align 8, !tbaa !9
  %16 = getelementptr inbounds nuw %struct.aeEventLoop, ptr %15, i32 0, i32 4
  %17 = load ptr, ptr %16, align 8, !tbaa !18
  %18 = load i32, ptr %5, align 4, !tbaa !5
  %19 = sext i32 %18 to i64
  %20 = getelementptr inbounds %struct.aeFileEvent, ptr %17, i64 %19
  store ptr %20, ptr %6, align 8, !tbaa !48
  %21 = load ptr, ptr %6, align 8, !tbaa !48
  %22 = getelementptr inbounds nuw %struct.aeFileEvent, ptr %21, i32 0, i32 0
  %23 = load i32, ptr %22, align 8, !tbaa !28
  %24 = icmp eq i32 %23, 0
  br i1 %24, label %25, label %26

25:                                               ; preds = %14
  store ptr null, ptr %3, align 8
  store i32 1, ptr %7, align 4
  br label %30

26:                                               ; preds = %14
  %27 = load ptr, ptr %6, align 8, !tbaa !48
  %28 = getelementptr inbounds nuw %struct.aeFileEvent, ptr %27, i32 0, i32 3
  %29 = load ptr, ptr %28, align 8, !tbaa !51
  store ptr %29, ptr %3, align 8
  store i32 1, ptr %7, align 4
  br label %30

30:                                               ; preds = %26, %25
  call void @llvm.lifetime.end.p0(i64 8, ptr %6) #10
  br label %31

31:                                               ; preds = %30, %13
  %32 = load ptr, ptr %3, align 8
  ret ptr %32
}