; Function Attrs: mustprogress nofree norecurse nosync nounwind willreturn memory(read, inaccessiblemem: none) uwtable
define dso_local ptr @aeGetFileClientData(ptr noundef readonly captures(none) %0, i32 noundef %1) local_unnamed_addr #10 {
  %3 = getelementptr inbounds nuw i8, ptr %0, i64 4
  %4 = load i32, ptr %3, align 4, !tbaa !17
  %.not = icmp slt i32 %1, %4
  br i1 %.not, label %5, label %15

5:                                                ; preds = %2
  %6 = getelementptr inbounds nuw i8, ptr %0, i64 24
  %7 = load ptr, ptr %6, align 8, !tbaa !15
  %8 = sext i32 %1 to i64
  %9 = getelementptr inbounds %struct.aeFileEvent, ptr %7, i64 %8
  %10 = load i32, ptr %9, align 8, !tbaa !27
  %11 = icmp eq i32 %10, 0
  br i1 %11, label %15, label %12

12:                                               ; preds = %5
  %13 = getelementptr inbounds nuw i8, ptr %9, i64 24
  %14 = load ptr, ptr %13, align 8, !tbaa !44
  br label %15

15:                                               ; preds = %12, %5, %2
  %.0 = phi ptr [ null, %2 ], [ %14, %12 ], [ null, %5 ]
  ret ptr %.0
}